; ModuleID = '54/432.c'
source_filename = "54/432.c"
target datalayout = "e-m:e-p270:32:32-p271:32:32-p272:64:64-i64:64-f80:128-n8:16:32:64-S128"
target triple = "x86_64-pc-linux-gnu"

@.str = private unnamed_addr constant [6 x i8] c"%d %d\00", align 1
@.str.1 = private unnamed_addr constant [3 x i8] c"%d\00", align 1

; Function Attrs: noinline nounwind uwtable
define dso_local void @main() #0 {
  %1 = alloca i32, align 4
  %2 = alloca i32, align 4
  %3 = alloca i32, align 4
  %4 = alloca i32, align 4
  %5 = alloca i32, align 4
  %6 = alloca i32, align 4
  store i32 0, i32* %4, align 4
  %7 = call i32 (i8*, ...) @__isoc99_scanf(i8* getelementptr inbounds ([6 x i8], [6 x i8]* @.str, i64 0, i64 0), i32* %1, i32* %2)
  %8 = load i32, i32* %1, align 4
  %9 = icmp sgt i32 %8, 2
  br i1 %9, label %10, label %28

10:                                               ; preds = %0
  store i32 1, i32* %5, align 4
  store i32 1, i32* %6, align 4
  br label %11

11:                                               ; preds = %15, %10
  %12 = load i32, i32* %5, align 4
  %13 = load i32, i32* %1, align 4
  %14 = icmp sle i32 %12, %13
  br i1 %14, label %15, label %21

15:                                               ; preds = %11
  %16 = load i32, i32* %6, align 4
  %17 = load i32, i32* %1, align 4
  %18 = mul nsw i32 %16, %17
  store i32 %18, i32* %6, align 4
  %19 = load i32, i32* %5, align 4
  %20 = add nsw i32 %19, 1
  store i32 %20, i32* %5, align 4
  br label %11

21:                                               ; preds = %11
  %22 = load i32, i32* %6, align 4
  %23 = load i32, i32* %2, align 4
  %24 = load i32, i32* %1, align 4
  %25 = sub nsw i32 %24, 1
  %26 = mul nsw i32 %23, %25
  %27 = sub nsw i32 %22, %26
  store i32 %27, i32* %4, align 4
  br label %31

28:                                               ; preds = %0
  store i32 2, i32* %1, align 4
  br i1 true, label %29, label %30

29:                                               ; preds = %28
  store i32 7, i32* %4, align 4
  br label %30

30:                                               ; preds = %29, %28
  br label %31

31:                                               ; preds = %30, %21
  %32 = load i32, i32* %4, align 4
  %33 = call i32 (i8*, ...) @printf(i8* getelementptr inbounds ([3 x i8], [3 x i8]* @.str.1, i64 0, i64 0), i32 %32)
  ret void
}

declare dso_local i32 @__isoc99_scanf(i8*, ...) #1

declare dso_local i32 @printf(i8*, ...) #1


!llvm.module.flags = !{!0}
!llvm.ident = !{!1}

!0 = !{i32 1, !"wchar_size", i32 4}
!1 = !{!"clang version 10.0.0-4ubuntu1 "}
